target datalayout = "e-m:e-p270:32:32-p271:32:32-p272:64:64-i64:64-i128:128-f80:128-n8:16:32:64-S128"
target triple = "x86_64-pc-linux-gnu"

%struct._object = type { %union.anon, ptr }
%union.anon = type { i64 }
%struct.PyVarObject = type { %struct._object, i64 }
%struct.array_state = type { ptr, ptr, ptr, ptr, ptr, ptr, ptr }
%struct.arraydescr = type { i8, i32, ptr, ptr, ptr, ptr, i32, i32 }
%struct.PyModuleObject = type { %struct._object, ptr, ptr, ptr, ptr, ptr }
%struct.arrayobject = type { %struct.PyVarObject, ptr, i64, ptr, ptr, i64 }

; Function Attrs: inlinehint nounwind uwtable
define internal ptr @_PyModule_GetState(ptr noundef %0) #3 {
  %2 = alloca ptr, align 8
  store ptr %0, ptr %2, align 8, !tbaa !3
  %3 = load ptr, ptr %2, align 8, !tbaa !3
  %4 = getelementptr inbounds nuw %struct.PyModuleObject, ptr %3, i32 0, i32 3
  %5 = load ptr, ptr %4, align 8, !tbaa !65
  ret ptr %5
}

; Function Attrs: inlinehint nounwind uwtable
define internal i64 @Py_SIZE(ptr noundef %0) #3 {
  %2 = alloca ptr, align 8
  store ptr %0, ptr %2, align 8, !tbaa !3
  %3 = load ptr, ptr %2, align 8, !tbaa !3
  %4 = getelementptr inbounds nuw %struct.PyVarObject, ptr %3, i32 0, i32 1
  %5 = load i64, ptr %4, align 8, !tbaa !62
  ret i64 %5
}

; Function Attrs: nounwind uwtable
define internal ptr @get_array_state(ptr noundef %0) #0 {
  %2 = alloca ptr, align 8
  store ptr %0, ptr %2, align 8, !tbaa !3
  %3 = load ptr, ptr %2, align 8, !tbaa !3
  %4 = call ptr @_PyModule_GetState(ptr noundef %3)
  ret ptr %4
}

; Function Attrs: inlinehint nounwind uwtable
define internal ptr @_Py_TYPE(ptr noundef %0) #3 {
  %2 = alloca ptr, align 8
  store ptr %0, ptr %2, align 8, !tbaa !3
  %3 = load ptr, ptr %2, align 8, !tbaa !3
  %4 = getelementptr inbounds nuw %struct._object, ptr %3, i32 0, i32 1
  %5 = load ptr, ptr %4, align 8, !tbaa !32
  ret ptr %5
}

; Function Attrs: nounwind uwtable
define internal ptr @array_repeat(ptr noundef %0, i64 noundef %1) #0 {
  %3 = alloca ptr, align 8
  %4 = alloca ptr, align 8
  %5 = alloca i64, align 8
  %6 = alloca ptr, align 8
  %7 = alloca i64, align 8
  %8 = alloca i32, align 4
  %9 = alloca i64, align 8
  %10 = alloca ptr, align 8
  %11 = alloca i64, align 8
  %12 = alloca i64, align 8
  store ptr %0, ptr %4, align 8, !tbaa !68
  store i64 %1, ptr %5, align 8, !tbaa !21
  call void @llvm.lifetime.start.p0(i64 8, ptr %6) #8
  %13 = load ptr, ptr %4, align 8, !tbaa !68
  %14 = call ptr @_Py_TYPE(ptr noundef %13)
  %15 = call ptr @PyType_GetModuleByDef(ptr noundef %14, ptr noundef @arraymodule)
  %16 = call ptr @get_array_state(ptr noundef %15)
  store ptr %16, ptr %6, align 8, !tbaa !8
  %17 = load i64, ptr %5, align 8, !tbaa !21
  %18 = icmp slt i64 %17, 0
  br i1 %18, label %19, label %20

19:                                               ; preds = %2
  store i64 0, ptr %5, align 8, !tbaa !21
  br label %20

20:                                               ; preds = %19, %2
  call void @llvm.lifetime.start.p0(i64 8, ptr %7) #8
  %21 = load ptr, ptr %4, align 8, !tbaa !68
  %22 = call i64 @Py_SIZE(ptr noundef %21)
  store i64 %22, ptr %7, align 8, !tbaa !21
  %23 = load i64, ptr %7, align 8, !tbaa !21
  %24 = icmp ne i64 %23, 0
  br i1 %24, label %25, label %32

25:                                               ; preds = %20
  %26 = load i64, ptr %5, align 8, !tbaa !21
  %27 = load i64, ptr %7, align 8, !tbaa !21
  %28 = sdiv i64 9223372036854775807, %27
  %29 = icmp sgt i64 %26, %28
  br i1 %29, label %30, label %32

30:                                               ; preds = %25
  %31 = call ptr @PyErr_NoMemory()
  store ptr %31, ptr %3, align 8
  store i32 1, ptr %8, align 4
  br label %74

32:                                               ; preds = %25, %20
  call void @llvm.lifetime.start.p0(i64 8, ptr %9) #8
  %33 = load i64, ptr %7, align 8, !tbaa !21
  %34 = load i64, ptr %5, align 8, !tbaa !21
  %35 = mul i64 %33, %34
  store i64 %35, ptr %9, align 8, !tbaa !21
  call void @llvm.lifetime.start.p0(i64 8, ptr %10) #8
  %36 = load ptr, ptr %6, align 8, !tbaa !8
  %37 = getelementptr inbounds nuw %struct.array_state, ptr %36, i32 0, i32 0
  %38 = load ptr, ptr %37, align 8, !tbaa !9
  %39 = load i64, ptr %9, align 8, !tbaa !21
  %40 = load ptr, ptr %4, align 8, !tbaa !68
  %41 = getelementptr inbounds nuw %struct.arrayobject, ptr %40, i32 0, i32 3
  %42 = load ptr, ptr %41, align 8, !tbaa !99
  %43 = call ptr @newarrayobject(ptr noundef %38, i64 noundef %39, ptr noundef %42)
  store ptr %43, ptr %10, align 8, !tbaa !68
  %44 = load ptr, ptr %10, align 8, !tbaa !68
  %45 = icmp eq ptr %44, null
  br i1 %45, label %46, label %47

46:                                               ; preds = %32
  store ptr null, ptr %3, align 8
  store i32 1, ptr %8, align 4
  br label %73

47:                                               ; preds = %32
  %48 = load i64, ptr %9, align 8, !tbaa !21
  %49 = icmp eq i64 %48, 0
  br i1 %49, label %50, label %52

50:                                               ; preds = %47
  %51 = load ptr, ptr %10, align 8, !tbaa !68
  store ptr %51, ptr %3, align 8
  store i32 1, ptr %8, align 4
  br label %73

52:                                               ; preds = %47
  call void @llvm.lifetime.start.p0(i64 8, ptr %11) #8
  %53 = load i64, ptr %7, align 8, !tbaa !21
  %54 = load ptr, ptr %4, align 8, !tbaa !68
  %55 = getelementptr inbounds nuw %struct.arrayobject, ptr %54, i32 0, i32 3
  %56 = load ptr, ptr %55, align 8, !tbaa !99
  %57 = getelementptr inbounds nuw %struct.arraydescr, ptr %56, i32 0, i32 1
  %58 = load i32, ptr %57, align 4, !tbaa !52
  %59 = sext i32 %58 to i64
  %60 = mul i64 %53, %59
  store i64 %60, ptr %11, align 8, !tbaa !21
  call void @llvm.lifetime.start.p0(i64 8, ptr %12) #8
  %61 = load i64, ptr %11, align 8, !tbaa !21
  %62 = load i64, ptr %5, align 8, !tbaa !21
  %63 = mul i64 %61, %62
  store i64 %63, ptr %12, align 8, !tbaa !21
  %64 = load ptr, ptr %10, align 8, !tbaa !68
  %65 = getelementptr inbounds nuw %struct.arrayobject, ptr %64, i32 0, i32 1
  %66 = load ptr, ptr %65, align 8, !tbaa !70
  %67 = load i64, ptr %12, align 8, !tbaa !21
  %68 = load ptr, ptr %4, align 8, !tbaa !68
  %69 = getelementptr inbounds nuw %struct.arrayobject, ptr %68, i32 0, i32 1
  %70 = load ptr, ptr %69, align 8, !tbaa !70
  %71 = load i64, ptr %11, align 8, !tbaa !21
  call void @_PyBytes_Repeat(ptr noundef %66, i64 noundef %67, ptr noundef %70, i64 noundef %71)
  %72 = load ptr, ptr %10, align 8, !tbaa !68
  store ptr %72, ptr %3, align 8
  store i32 1, ptr %8, align 4
  call void @llvm.lifetime.end.p0(i64 8, ptr %12) #8
  call void @llvm.lifetime.end.p0(i64 8, ptr %11) #8
  br label %73

73:                                               ; preds = %52, %50, %46
  call void @llvm.lifetime.end.p0(i64 8, ptr %10) #8
  call void @llvm.lifetime.end.p0(i64 8, ptr %9) #8
  br label %74

74:                                               ; preds = %73, %30
  call void @llvm.lifetime.end.p0(i64 8, ptr %7) #8
  call void @llvm.lifetime.end.p0(i64 8, ptr %6) #8
  %75 = load ptr, ptr %3, align 8
  ret ptr %75
}