; Function Attrs: nounwind uwtable
define internal ptr @array_repeat(ptr noundef readonly captures(none) %0, i64 noundef %1) #0 {
  %3 = getelementptr i8, ptr %0, i64 8
  %.val25 = load ptr, ptr %3, align 8, !tbaa !19
  %4 = tail call ptr @PyType_GetModuleByDef(ptr noundef %.val25, ptr noundef nonnull @arraymodule) #11
  %5 = getelementptr i8, ptr %4, i64 32
  %.val = load ptr, ptr %5, align 8, !tbaa !3
  %spec.store.select = tail call i64 @llvm.smax.i64(i64 %1, i64 0)
  %6 = getelementptr i8, ptr %0, i64 16
  %.val26 = load i64, ptr %6, align 8, !tbaa !40
  %.not = icmp eq i64 %.val26, 0
  br i1 %.not, label %12, label %7

7:                                                ; preds = %2
  %8 = sdiv i64 9223372036854775807, %.val26
  %9 = icmp sgt i64 %spec.store.select, %8
  br i1 %9, label %10, label %12

10:                                               ; preds = %7
  %11 = tail call ptr @PyErr_NoMemory() #11
  br label %32

12:                                               ; preds = %7, %2
  %13 = mul i64 %.val26, %spec.store.select
  %14 = load ptr, ptr %.val, align 8, !tbaa !12
  %15 = getelementptr inbounds nuw i8, ptr %0, i64 40
  %16 = load ptr, ptr %15, align 8, !tbaa !76
  %17 = tail call fastcc ptr @newarrayobject(ptr noundef %14, i64 noundef %13, ptr noundef %16)
  %18 = icmp eq ptr %17, null
  br i1 %18, label %32, label %19

19:                                               ; preds = %12
  %20 = icmp eq i64 %13, 0
  br i1 %20, label %32, label %21

21:                                               ; preds = %19
  %22 = load ptr, ptr %15, align 8, !tbaa !76
  %23 = getelementptr inbounds nuw i8, ptr %22, i64 4
  %24 = load i32, ptr %23, align 4, !tbaa !49
  %25 = sext i32 %24 to i64
  %26 = mul i64 %.val26, %25
  %27 = mul i64 %26, %spec.store.select
  %28 = getelementptr inbounds nuw i8, ptr %17, i64 24
  %29 = load ptr, ptr %28, align 8, !tbaa !53
  %30 = getelementptr inbounds nuw i8, ptr %0, i64 24
  %31 = load ptr, ptr %30, align 8, !tbaa !53
  tail call void @_PyBytes_Repeat(ptr noundef %29, i64 noundef %27, ptr noundef %31, i64 noundef %26) #11
  br label %32

32:                                               ; preds = %21, %12, %19, %10
  %.0 = phi ptr [ %11, %10 ], [ %17, %21 ], [ null, %12 ], [ %17, %19 ]
  ret ptr %.0
}